target datalayout = "e-m:e-p270:32:32-p271:32:32-p272:64:64-i64:64-i128:128-f80:128-n8:16:32:64-S128"
target triple = "x86_64-unknown-linux-gnu"

%"struct.absl::container_internal::internal_compressed_tuple::Storage" = type { i64 }
%"class.testing::ThrowingValue" = type { i32 }
%"class.absl::FixedArray.42" = type { %"class.absl::FixedArray<testing::ThrowingValue<testing::TypeSpec::kEverythingThrows>, 25, testing::ThrowingAllocator<testing::ThrowingValue<testing::TypeSpec::kEverythingThrows>, testing::AllocSpec::kEverythingThrows>>::Storage" }
%"class.absl::FixedArray<testing::ThrowingValue<testing::TypeSpec::kEverythingThrows>, 25, testing::ThrowingAllocator<testing::ThrowingValue<testing::TypeSpec::kEverythingThrows>, testing::AllocSpec::kEverythingThrows>>::Storage" = type { %"class.absl::FixedArray<testing::ThrowingValue<testing::TypeSpec::kEverythingThrows>, 25, testing::ThrowingAllocator<testing::ThrowingValue<testing::TypeSpec::kEverythingThrows>, testing::AllocSpec::kEverythingThrows>>::NonEmptyInlinedStorage", %"class.absl::container_internal::CompressedTuple.43", ptr }
%"class.absl::FixedArray<testing::ThrowingValue<testing::TypeSpec::kEverythingThrows>, 25, testing::ThrowingAllocator<testing::ThrowingValue<testing::TypeSpec::kEverythingThrows>, testing::AllocSpec::kEverythingThrows>>::NonEmptyInlinedStorage" = type { [100 x i8] }
%"class.absl::container_internal::CompressedTuple.43" = type { %"struct.absl::container_internal::internal_compressed_tuple::CompressedTupleImpl.44" }
%"struct.absl::container_internal::internal_compressed_tuple::CompressedTupleImpl.44" = type { %"struct.absl::container_internal::internal_compressed_tuple::Storage", %"struct.absl::container_internal::internal_compressed_tuple::Storage.45" }
%"struct.absl::container_internal::internal_compressed_tuple::Storage.45" = type { %"class.testing::ThrowingAllocator" }
%"class.testing::ThrowingAllocator" = type { %"class.std::shared_ptr" }
%"class.std::shared_ptr" = type { %"class.std::__shared_ptr" }
%"class.std::__shared_ptr" = type { ptr, %"class.std::__shared_count" }
%"class.std::__shared_count" = type { ptr }
%class.anon.134 = type { i8 }
%"class.std::tuple.136" = type { %"struct.std::_Tuple_impl.137" }
%"struct.std::_Tuple_impl.137" = type { %"struct.std::_Head_base.138" }
%"struct.std::_Head_base.138" = type { ptr }
%"class.testing::exceptions_internal::ExceptionSafetyTestBuilder.140" = type { %"class.testing::exceptions_internal::DefaultFactory.141", %class.anon.134, %"class.std::tuple.136" }
%"class.testing::exceptions_internal::DefaultFactory.141" = type { %"class.absl::FixedArray.42" }

; Function Attrs: mustprogress nounwind uwtable
define linkonce_odr dso_local noundef ptr @_ZNKSt12__shared_ptrIKiLN9__gnu_cxx12_Lock_policyE2EE3getEv(ptr noundef nonnull align 8 dereferenceable(16) %this) #7 comdat align 2 {
entry:
  %this.addr = alloca ptr, align 8
  store ptr %this, ptr %this.addr, align 8
  %this1 = load ptr, ptr %this.addr, align 8
  %_M_ptr = getelementptr inbounds %"class.std::__shared_ptr", ptr %this1, i32 0, i32 0
  %0 = load ptr, ptr %_M_ptr, align 8
  ret ptr %0
}

; Function Attrs: mustprogress nounwind uwtable
define linkonce_odr dso_local noundef ptr @_ZNKSt19__shared_ptr_accessIKiLN9__gnu_cxx12_Lock_policyE2ELb0ELb0EE6_M_getEv(ptr noundef nonnull align 1 dereferenceable(1) %this) #7 comdat align 2 {
entry:
  %this.addr = alloca ptr, align 8
  store ptr %this, ptr %this.addr, align 8
  %this1 = load ptr, ptr %this.addr, align 8
  %call = call noundef ptr @_ZNKSt12__shared_ptrIKiLN9__gnu_cxx12_Lock_policyE2EE3getEv(ptr noundef nonnull align 8 dereferenceable(16) %this1) #3
  ret ptr %call
}

; Function Attrs: mustprogress nounwind uwtable
define linkonce_odr dso_local void @_ZN7testing19exceptions_internal13TrackedObjectD2Ev(ptr noundef nonnull align 1 dereferenceable(1) %this) unnamed_addr #7 comdat align 2 personality ptr @__gxx_personality_v0 {
entry:
  %this.addr = alloca ptr, align 8
  store ptr %this, ptr %this.addr, align 8
  %this1 = load ptr, ptr %this.addr, align 8
  invoke void @_ZN7testing19exceptions_internal18ConstructorTracker16ObjectDestructedEPv(ptr noundef %this1)
          to label %invoke.cont unwind label %terminate.lpad

invoke.cont:                                      ; preds = %entry
  ret void

terminate.lpad:                                   ; preds = %entry
  %0 = landingpad { ptr, i32 }
          catch ptr null
  %1 = extractvalue { ptr, i32 } %0, 0
  call void @__clang_call_terminate(ptr %1) #18
  unreachable
}

; Function Attrs: mustprogress nounwind uwtable
define linkonce_odr dso_local noundef nonnull align 4 dereferenceable(4) ptr @_ZNKSt19__shared_ptr_accessIKiLN9__gnu_cxx12_Lock_policyE2ELb0ELb0EEdeEv(ptr noundef nonnull align 1 dereferenceable(1) %this) #7 comdat align 2 {
entry:
  %this.addr = alloca ptr, align 8
  store ptr %this, ptr %this.addr, align 8
  %this1 = load ptr, ptr %this.addr, align 8
  br label %do.body

do.body:                                          ; preds = %entry
  br label %do.cond

do.cond:                                          ; preds = %do.body
  br label %do.end

do.end:                                           ; preds = %do.cond
  %call = call noundef ptr @_ZNKSt19__shared_ptr_accessIKiLN9__gnu_cxx12_Lock_policyE2ELb0ELb0EE6_M_getEv(ptr noundef nonnull align 1 dereferenceable(1) %this1) #3
  ret ptr %call
}

; Function Attrs: mustprogress nounwind uwtable
define linkonce_odr dso_local void @_ZN7testing13ThrowingValueILNS_8TypeSpecE0EED2Ev(ptr noundef nonnull align 4 dereferenceable(4) %this) unnamed_addr #7 comdat align 2 {
entry:
  %this.addr = alloca ptr, align 8
  store ptr %this, ptr %this.addr, align 8
  %this1 = load ptr, ptr %this.addr, align 8
  call void @_ZN7testing19exceptions_internal13TrackedObjectD2Ev(ptr noundef nonnull align 1 dereferenceable(1) %this1) #3
  ret void
}

; Function Attrs: mustprogress nounwind uwtable
define linkonce_odr dso_local void @_ZN7testing17ThrowingAllocatorINS_13ThrowingValueILNS_8TypeSpecE0EEELNS_9AllocSpecE0EE9ReadStateEv(ptr noundef nonnull align 8 dereferenceable(16) %this) #7 comdat align 2 {
entry:
  %this.addr = alloca ptr, align 8
  store ptr %this, ptr %this.addr, align 8
  %this1 = load ptr, ptr %this.addr, align 8
  %dummy_ = getelementptr inbounds %"class.testing::ThrowingAllocator", ptr %this1, i32 0, i32 0
  %call = call noundef nonnull align 4 dereferenceable(4) ptr @_ZNKSt19__shared_ptr_accessIKiLN9__gnu_cxx12_Lock_policyE2ELb0ELb0EEdeEv(ptr noundef nonnull align 1 dereferenceable(1) %dummy_) #3
  %0 = load i32, ptr %call, align 4
  %cmp = icmp slt i32 %0, 0
  br i1 %cmp, label %if.then, label %if.end

if.then:                                          ; preds = %entry
  call void @abort() #18
  unreachable

if.end:                                           ; preds = %entry
  ret void
}

; Function Attrs: mustprogress nounwind uwtable
define linkonce_odr dso_local noundef nonnull align 8 dereferenceable(8) ptr @_ZNKR4absl18container_internal25internal_compressed_tuple7StorageImLm0ELb0EE3getEv(ptr noundef nonnull align 8 dereferenceable(8) %this) #7 comdat align 2 {
entry:
  %this.addr = alloca ptr, align 8
  store ptr %this, ptr %this.addr, align 8
  %this1 = load ptr, ptr %this.addr, align 8
  %value = getelementptr inbounds %"struct.absl::container_internal::internal_compressed_tuple::Storage", ptr %this1, i32 0, i32 0
  ret ptr %value
}

; Function Attrs: mustprogress nounwind uwtable
define linkonce_odr dso_local void @_ZN7testing17ThrowingAllocatorINS_13ThrowingValueILNS_8TypeSpecE0EEELNS_9AllocSpecE0EE7destroyIS3_EEvPT_(ptr noundef nonnull align 8 dereferenceable(16) %this, ptr noundef %p) #7 comdat align 2 personality ptr @__gxx_personality_v0 {
entry:
  %this.addr = alloca ptr, align 8
  %p.addr = alloca ptr, align 8
  store ptr %this, ptr %this.addr, align 8
  store ptr %p, ptr %p.addr, align 8
  %this1 = load ptr, ptr %this.addr, align 8
  invoke void @_ZN7testing17ThrowingAllocatorINS_13ThrowingValueILNS_8TypeSpecE0EEELNS_9AllocSpecE0EE9ReadStateEv(ptr noundef nonnull align 8 dereferenceable(16) %this1)
          to label %invoke.cont unwind label %terminate.lpad

invoke.cont:                                      ; preds = %entry
  %0 = load ptr, ptr %p.addr, align 8
  call void @_ZN7testing13ThrowingValueILNS_8TypeSpecE0EED2Ev(ptr noundef nonnull align 4 dereferenceable(4) %0) #3
  ret void

terminate.lpad:                                   ; preds = %entry
  %1 = landingpad { ptr, i32 }
          catch ptr null
  %2 = extractvalue { ptr, i32 } %1, 0
  call void @__clang_call_terminate(ptr %2) #18
  unreachable
}

; Function Attrs: mustprogress nounwind uwtable
define linkonce_odr dso_local noundef nonnull align 8 dereferenceable(16) ptr @_ZNR4absl18container_internal25internal_compressed_tuple7StorageIN7testing17ThrowingAllocatorINS3_13ThrowingValueILNS3_8TypeSpecE0EEELNS3_9AllocSpecE0EEELm1ELb0EE3getEv(ptr noundef nonnull align 8 dereferenceable(16) %this) #7 comdat align 2 {
entry:
  %this.addr = alloca ptr, align 8
  store ptr %this, ptr %this.addr, align 8
  %this1 = load ptr, ptr %this.addr, align 8
  %value = getelementptr inbounds %"struct.absl::container_internal::internal_compressed_tuple::Storage.45", ptr %this1, i32 0, i32 0
  ret ptr %value
}

; Function Attrs: mustprogress nounwind uwtable
define linkonce_odr dso_local noundef nonnull align 8 dereferenceable(8) ptr @_ZNKR4absl18container_internal15CompressedTupleIJmN7testing17ThrowingAllocatorINS2_13ThrowingValueILNS2_8TypeSpecE0EEELNS2_9AllocSpecE0EEEEE3getILi0EEERKNS0_25internal_compressed_tuple4ElemIS9_XT_EE4typeEv(ptr noundef nonnull align 8 dereferenceable(24) %this) #7 comdat align 2 {
entry:
  %this.addr = alloca ptr, align 8
  store ptr %this, ptr %this.addr, align 8
  %this1 = load ptr, ptr %this.addr, align 8
  %call = call noundef nonnull align 8 dereferenceable(8) ptr @_ZNKR4absl18container_internal25internal_compressed_tuple7StorageImLm0ELb0EE3getEv(ptr noundef nonnull align 8 dereferenceable(8) %this1)
  ret ptr %call
}

; Function Attrs: mustprogress nounwind uwtable
define linkonce_odr dso_local void @_ZNSt16allocator_traitsIN7testing17ThrowingAllocatorINS0_13ThrowingValueILNS0_8TypeSpecE0EEELNS0_9AllocSpecE0EEEE10_S_destroyIS6_S4_EEDTcldtfp_7destroyfp0_EERT_PT0_i(ptr noundef nonnull align 8 dereferenceable(16) %__a, ptr noundef %__p, i32 noundef %0) #7 comdat align 2 {
entry:
  %__a.addr = alloca ptr, align 8
  %__p.addr = alloca ptr, align 8
  %.addr = alloca i32, align 4
  store ptr %__a, ptr %__a.addr, align 8
  store ptr %__p, ptr %__p.addr, align 8
  store i32 %0, ptr %.addr, align 4
  %1 = load ptr, ptr %__a.addr, align 8
  %2 = load ptr, ptr %__p.addr, align 8
  call void @_ZN7testing17ThrowingAllocatorINS_13ThrowingValueILNS_8TypeSpecE0EEELNS_9AllocSpecE0EE7destroyIS3_EEvPT_(ptr noundef nonnull align 8 dereferenceable(16) %1, ptr noundef %2) #3
  ret void
}

; Function Attrs: mustprogress uwtable
define linkonce_odr dso_local noundef nonnull align 8 dereferenceable(16) ptr @_ZNR4absl18container_internal15CompressedTupleIJmN7testing17ThrowingAllocatorINS2_13ThrowingValueILNS2_8TypeSpecE0EEELNS2_9AllocSpecE0EEEEE3getILi1EEERNS0_25internal_compressed_tuple4ElemIS9_XT_EE4typeEv(ptr noundef nonnull align 8 dereferenceable(24) %this) #4 comdat align 2 {
entry:
  %this.addr = alloca ptr, align 8
  store ptr %this, ptr %this.addr, align 8
  %this1 = load ptr, ptr %this.addr, align 8
  %add.ptr = getelementptr inbounds i8, ptr %this1, i64 8
  %call = call noundef nonnull align 8 dereferenceable(16) ptr @_ZNR4absl18container_internal25internal_compressed_tuple7StorageIN7testing17ThrowingAllocatorINS3_13ThrowingValueILNS3_8TypeSpecE0EEELNS3_9AllocSpecE0EEELm1ELb0EE3getEv(ptr noundef nonnull align 8 dereferenceable(16) %add.ptr)
  ret ptr %call
}

; Function Attrs: mustprogress uwtable
define linkonce_odr dso_local noundef i64 @_ZNK4absl10FixedArrayIN7testing13ThrowingValueILNS1_8TypeSpecE0EEELm25ENS1_17ThrowingAllocatorIS4_LNS1_9AllocSpecE0EEEE7Storage4sizeEv(ptr noundef nonnull align 8 dereferenceable(136) %this) #4 comdat align 2 {
entry:
  %this.addr = alloca ptr, align 8
  store ptr %this, ptr %this.addr, align 8
  %this1 = load ptr, ptr %this.addr, align 8
  %size_alloc_ = getelementptr inbounds %"class.absl::FixedArray<testing::ThrowingValue<testing::TypeSpec::kEverythingThrows>, 25, testing::ThrowingAllocator<testing::ThrowingValue<testing::TypeSpec::kEverythingThrows>, testing::AllocSpec::kEverythingThrows>>::Storage", ptr %this1, i32 0, i32 1
  %call = call noundef nonnull align 8 dereferenceable(8) ptr @_ZNKR4absl18container_internal15CompressedTupleIJmN7testing17ThrowingAllocatorINS2_13ThrowingValueILNS2_8TypeSpecE0EEELNS2_9AllocSpecE0EEEEE3getILi0EEERKNS0_25internal_compressed_tuple4ElemIS9_XT_EE4typeEv(ptr noundef nonnull align 8 dereferenceable(24) %size_alloc_)
  %0 = load i64, ptr %call, align 8
  ret i64 %0
}

; Function Attrs: mustprogress nounwind uwtable
define linkonce_odr dso_local void @_ZNSt16allocator_traitsIN7testing17ThrowingAllocatorINS0_13ThrowingValueILNS0_8TypeSpecE0EEELNS0_9AllocSpecE0EEEE7destroyIS4_EEvRS6_PT_(ptr noundef nonnull align 8 dereferenceable(16) %__a, ptr noundef %__p) #7 comdat align 2 {
entry:
  %__a.addr = alloca ptr, align 8
  %__p.addr = alloca ptr, align 8
  store ptr %__a, ptr %__a.addr, align 8
  store ptr %__p, ptr %__p.addr, align 8
  %0 = load ptr, ptr %__a.addr, align 8
  %1 = load ptr, ptr %__p.addr, align 8
  call void @_ZNSt16allocator_traitsIN7testing17ThrowingAllocatorINS0_13ThrowingValueILNS0_8TypeSpecE0EEELNS0_9AllocSpecE0EEEE10_S_destroyIS6_S4_EEDTcldtfp_7destroyfp0_EERT_PT0_i(ptr noundef nonnull align 8 dereferenceable(16) %0, ptr noundef %1, i32 noundef 0) #3
  ret void
}

; Function Attrs: mustprogress uwtable
define linkonce_odr dso_local noundef nonnull align 8 dereferenceable(16) ptr @_ZN4absl10FixedArrayIN7testing13ThrowingValueILNS1_8TypeSpecE0EEELm25ENS1_17ThrowingAllocatorIS4_LNS1_9AllocSpecE0EEEE7Storage5allocEv(ptr noundef nonnull align 8 dereferenceable(136) %this) #4 comdat align 2 {
entry:
  %this.addr = alloca ptr, align 8
  store ptr %this, ptr %this.addr, align 8
  %this1 = load ptr, ptr %this.addr, align 8
  %size_alloc_ = getelementptr inbounds %"class.absl::FixedArray<testing::ThrowingValue<testing::TypeSpec::kEverythingThrows>, 25, testing::ThrowingAllocator<testing::ThrowingValue<testing::TypeSpec::kEverythingThrows>, testing::AllocSpec::kEverythingThrows>>::Storage", ptr %this1, i32 0, i32 1
  %call = call noundef nonnull align 8 dereferenceable(16) ptr @_ZNR4absl18container_internal15CompressedTupleIJmN7testing17ThrowingAllocatorINS2_13ThrowingValueILNS2_8TypeSpecE0EEELNS2_9AllocSpecE0EEEEE3getILi1EEERNS0_25internal_compressed_tuple4ElemIS9_XT_EE4typeEv(ptr noundef nonnull align 8 dereferenceable(24) %size_alloc_)
  ret ptr %call
}

; Function Attrs: mustprogress uwtable
define linkonce_odr dso_local noundef ptr @_ZNK4absl10FixedArrayIN7testing13ThrowingValueILNS1_8TypeSpecE0EEELm25ENS1_17ThrowingAllocatorIS4_LNS1_9AllocSpecE0EEEE7Storage3endEv(ptr noundef nonnull align 8 dereferenceable(136) %this) #4 comdat align 2 {
entry:
  %this.addr = alloca ptr, align 8
  store ptr %this, ptr %this.addr, align 8
  %this1 = load ptr, ptr %this.addr, align 8
  %call = call noundef ptr @_ZNK4absl10FixedArrayIN7testing13ThrowingValueILNS1_8TypeSpecE0EEELm25ENS1_17ThrowingAllocatorIS4_LNS1_9AllocSpecE0EEEE7Storage5beginEv(ptr noundef nonnull align 8 dereferenceable(136) %this1)
  %call2 = call noundef i64 @_ZNK4absl10FixedArrayIN7testing13ThrowingValueILNS1_8TypeSpecE0EEELm25ENS1_17ThrowingAllocatorIS4_LNS1_9AllocSpecE0EEEE7Storage4sizeEv(ptr noundef nonnull align 8 dereferenceable(136) %this1)
  %add.ptr = getelementptr inbounds %"class.testing::ThrowingValue", ptr %call, i64 %call2
  ret ptr %add.ptr
}

; Function Attrs: mustprogress nounwind uwtable
define linkonce_odr dso_local noundef ptr @_ZNK4absl10FixedArrayIN7testing13ThrowingValueILNS1_8TypeSpecE0EEELm25ENS1_17ThrowingAllocatorIS4_LNS1_9AllocSpecE0EEEE7Storage5beginEv(ptr noundef nonnull align 8 dereferenceable(136) %this) #7 comdat align 2 {
entry:
  %this.addr = alloca ptr, align 8
  store ptr %this, ptr %this.addr, align 8
  %this1 = load ptr, ptr %this.addr, align 8
  %data_ = getelementptr inbounds %"class.absl::FixedArray<testing::ThrowingValue<testing::TypeSpec::kEverythingThrows>, 25, testing::ThrowingAllocator<testing::ThrowingValue<testing::TypeSpec::kEverythingThrows>, testing::AllocSpec::kEverythingThrows>>::Storage", ptr %this1, i32 0, i32 2
  %0 = load ptr, ptr %data_, align 8
  ret ptr %0
}

; Function Attrs: mustprogress nounwind uwtable
define linkonce_odr dso_local void @_ZN4absl10FixedArrayIN7testing13ThrowingValueILNS1_8TypeSpecE0EEELm25ENS1_17ThrowingAllocatorIS4_LNS1_9AllocSpecE0EEEED2Ev(ptr noundef nonnull align 8 dereferenceable(136) %this) unnamed_addr #7 comdat align 2 personality ptr @__gxx_personality_v0 {
entry:
  %this.addr = alloca ptr, align 8
  %cur = alloca ptr, align 8
  store ptr %this, ptr %this.addr, align 8
  %this1 = load ptr, ptr %this.addr, align 8
  %storage_ = getelementptr inbounds %"class.absl::FixedArray.42", ptr %this1, i32 0, i32 0
  %call = call noundef ptr @_ZNK4absl10FixedArrayIN7testing13ThrowingValueILNS1_8TypeSpecE0EEELm25ENS1_17ThrowingAllocatorIS4_LNS1_9AllocSpecE0EEEE7Storage5beginEv(ptr noundef nonnull align 8 dereferenceable(136) %storage_)
  store ptr %call, ptr %cur, align 8
  br label %for.cond

for.cond:                                         ; preds = %for.inc, %entry
  %0 = load ptr, ptr %cur, align 8
  %storage_2 = getelementptr inbounds %"class.absl::FixedArray.42", ptr %this1, i32 0, i32 0
  %call3 = invoke noundef ptr @_ZNK4absl10FixedArrayIN7testing13ThrowingValueILNS1_8TypeSpecE0EEELm25ENS1_17ThrowingAllocatorIS4_LNS1_9AllocSpecE0EEEE7Storage3endEv(ptr noundef nonnull align 8 dereferenceable(136) %storage_2)
          to label %invoke.cont unwind label %terminate.lpad

invoke.cont:                                      ; preds = %for.cond
  %cmp = icmp ne ptr %0, %call3
  br i1 %cmp, label %for.body, label %for.end

for.body:                                         ; preds = %invoke.cont
  %storage_4 = getelementptr inbounds %"class.absl::FixedArray.42", ptr %this1, i32 0, i32 0
  %call6 = invoke noundef nonnull align 8 dereferenceable(16) ptr @_ZN4absl10FixedArrayIN7testing13ThrowingValueILNS1_8TypeSpecE0EEELm25ENS1_17ThrowingAllocatorIS4_LNS1_9AllocSpecE0EEEE7Storage5allocEv(ptr noundef nonnull align 8 dereferenceable(136) %storage_4)
          to label %invoke.cont5 unwind label %terminate.lpad

invoke.cont5:                                     ; preds = %for.body
  %1 = load ptr, ptr %cur, align 8
  call void @_ZNSt16allocator_traitsIN7testing17ThrowingAllocatorINS0_13ThrowingValueILNS0_8TypeSpecE0EEELNS0_9AllocSpecE0EEEE7destroyIS4_EEvRS6_PT_(ptr noundef nonnull align 8 dereferenceable(16) %call6, ptr noundef %1) #3
  br label %for.inc

for.inc:                                          ; preds = %invoke.cont5
  %2 = load ptr, ptr %cur, align 8
  %incdec.ptr = getelementptr inbounds %"class.testing::ThrowingValue", ptr %2, i32 1
  store ptr %incdec.ptr, ptr %cur, align 8
  br label %for.cond, !llvm.loop !17

for.end:                                          ; preds = %invoke.cont
  %storage_7 = getelementptr inbounds %"class.absl::FixedArray.42", ptr %this1, i32 0, i32 0
  call void @_ZN4absl10FixedArrayIN7testing13ThrowingValueILNS1_8TypeSpecE0EEELm25ENS1_17ThrowingAllocatorIS4_LNS1_9AllocSpecE0EEEE7StorageD2Ev(ptr noundef nonnull align 8 dereferenceable(136) %storage_7) #3
  ret void

terminate.lpad:                                   ; preds = %for.body, %for.cond
  %3 = landingpad { ptr, i32 }
          catch ptr null
  %4 = extractvalue { ptr, i32 } %3, 0
  call void @__clang_call_terminate(ptr %4) #18
  unreachable
}

; Function Attrs: mustprogress nounwind uwtable
define linkonce_odr dso_local void @_ZN7testing19exceptions_internal14DefaultFactoryIN4absl10FixedArrayINS_13ThrowingValueILNS_8TypeSpecE0EEELm25ENS_17ThrowingAllocatorIS6_LNS_9AllocSpecE0EEEEEED2Ev(ptr noundef nonnull align 8 dereferenceable(136) %this) unnamed_addr #7 comdat align 2 {
entry:
  %this.addr = alloca ptr, align 8
  store ptr %this, ptr %this.addr, align 8
  %this1 = load ptr, ptr %this.addr, align 8
  %t_ = getelementptr inbounds %"class.testing::exceptions_internal::DefaultFactory.141", ptr %this1, i32 0, i32 0
  call void @_ZN4absl10FixedArrayIN7testing13ThrowingValueILNS1_8TypeSpecE0EEELm25ENS1_17ThrowingAllocatorIS4_LNS1_9AllocSpecE0EEEED2Ev(ptr noundef nonnull align 8 dereferenceable(136) %t_) #3
  ret void
}

; Function Attrs: mustprogress nounwind uwtable
define internal void @"_ZN7testing19exceptions_internal26ExceptionSafetyTestBuilderINS0_14DefaultFactoryIN4absl10FixedArrayINS_13ThrowingValueILNS_8TypeSpecE0EEELm25ENS_17ThrowingAllocatorIS7_LNS_9AllocSpecE0EEEEEEEZNS3_12_GLOBAL__N_144FixedArrayExceptionSafety_FillWithAlloc_Test8TestBodyEvE3$_0JPFNS_15AssertionResultEPSB_EEED2Ev"(ptr noundef nonnull align 8 dereferenceable(152) %this) unnamed_addr #7 align 2 {
entry:
  %this.addr = alloca ptr, align 8
  store ptr %this, ptr %this.addr, align 8
  %this1 = load ptr, ptr %this.addr, align 8
  %factory_ = getelementptr inbounds %"class.testing::exceptions_internal::ExceptionSafetyTestBuilder.140", ptr %this1, i32 0, i32 0
  call void @_ZN7testing19exceptions_internal14DefaultFactoryIN4absl10FixedArrayINS_13ThrowingValueILNS_8TypeSpecE0EEELm25ENS_17ThrowingAllocatorIS6_LNS_9AllocSpecE0EEEEEED2Ev(ptr noundef nonnull align 8 dereferenceable(136) %factory_) #3
  ret void
}