; Function Attrs: mustprogress nounwind uwtable
define internal fastcc void @"_ZN7testing19exceptions_internal26ExceptionSafetyTestBuilderINS0_14DefaultFactoryIN4absl10FixedArrayINS_13ThrowingValueILNS_8TypeSpecE0EEELm25ENS_17ThrowingAllocatorIS7_LNS_9AllocSpecE0EEEEEEEZNS3_12_GLOBAL__N_144FixedArrayExceptionSafety_FillWithAlloc_Test8TestBodyEvE3$_0JPFNS_15AssertionResultEPSB_EEED2Ev"(ptr noundef nonnull align 8 dereferenceable(152) %this) unnamed_addr #7 align 2 personality ptr @__gxx_personality_v0 {
entry:
  %data_.i.i.i = getelementptr inbounds i8, ptr %this, i64 128
  %size_alloc_.i.i.i.i = getelementptr inbounds i8, ptr %this, i64 104
  %0 = load i64, ptr %size_alloc_.i.i.i.i, align 8
  %cmp.not4.i.i = icmp eq i64 %0, 0
  br i1 %cmp.not4.i.i, label %_ZN7testing19exceptions_internal14DefaultFactoryIN4absl10FixedArrayINS_13ThrowingValueILNS_8TypeSpecE0EEELm25ENS_17ThrowingAllocatorIS6_LNS_9AllocSpecE0EEEEEED2Ev.exit, label %invoke.cont5.lr.ph.i.i

invoke.cont5.lr.ph.i.i:                           ; preds = %entry
  %1 = load ptr, ptr %data_.i.i.i, align 8
  %add.ptr.i.i.i.i = getelementptr inbounds i8, ptr %this, i64 112
  br label %invoke.cont5.i.i

invoke.cont5.i.i:                                 ; preds = %_ZNSt16allocator_traitsIN7testing17ThrowingAllocatorINS0_13ThrowingValueILNS0_8TypeSpecE0EEELNS0_9AllocSpecE0EEEE7destroyIS4_EEvRS6_PT_.exit.i.i, %invoke.cont5.lr.ph.i.i
  %cur.05.i.i = phi ptr [ %1, %invoke.cont5.lr.ph.i.i ], [ %incdec.ptr.i.i, %_ZNSt16allocator_traitsIN7testing17ThrowingAllocatorINS0_13ThrowingValueILNS0_8TypeSpecE0EEELNS0_9AllocSpecE0EEEE7destroyIS4_EEvRS6_PT_.exit.i.i ]
  %2 = load ptr, ptr %add.ptr.i.i.i.i, align 8
  %3 = load i32, ptr %2, align 4
  %cmp.i.i.i.i.i.i = icmp slt i32 %3, 0
  br i1 %cmp.i.i.i.i.i.i, label %if.then.i.i.i.i.i.i, label %_ZN7testing17ThrowingAllocatorINS_13ThrowingValueILNS_8TypeSpecE0EEELNS_9AllocSpecE0EE9ReadStateEv.exit.i.i.i.i.i

if.then.i.i.i.i.i.i:                              ; preds = %invoke.cont5.i.i
  tail call void @abort() #21
  unreachable

_ZN7testing17ThrowingAllocatorINS_13ThrowingValueILNS_8TypeSpecE0EEELNS_9AllocSpecE0EE9ReadStateEv.exit.i.i.i.i.i: ; preds = %invoke.cont5.i.i
  invoke void @_ZN7testing19exceptions_internal18ConstructorTracker16ObjectDestructedEPv(ptr noundef nonnull %cur.05.i.i)
          to label %_ZNSt16allocator_traitsIN7testing17ThrowingAllocatorINS0_13ThrowingValueILNS0_8TypeSpecE0EEELNS0_9AllocSpecE0EEEE7destroyIS4_EEvRS6_PT_.exit.i.i unwind label %terminate.lpad.i.i.i.i.i.i.i

terminate.lpad.i.i.i.i.i.i.i:                     ; preds = %_ZN7testing17ThrowingAllocatorINS_13ThrowingValueILNS_8TypeSpecE0EEELNS_9AllocSpecE0EE9ReadStateEv.exit.i.i.i.i.i
  %4 = landingpad { ptr, i32 }
          catch ptr null
  %5 = extractvalue { ptr, i32 } %4, 0
  tail call void @__clang_call_terminate(ptr %5) #21
  unreachable

_ZNSt16allocator_traitsIN7testing17ThrowingAllocatorINS0_13ThrowingValueILNS0_8TypeSpecE0EEELNS0_9AllocSpecE0EEEE7destroyIS4_EEvRS6_PT_.exit.i.i: ; preds = %_ZN7testing17ThrowingAllocatorINS_13ThrowingValueILNS_8TypeSpecE0EEELNS_9AllocSpecE0EE9ReadStateEv.exit.i.i.i.i.i
  %incdec.ptr.i.i = getelementptr inbounds i8, ptr %cur.05.i.i, i64 4
  %6 = load ptr, ptr %data_.i.i.i, align 8
  %7 = load i64, ptr %size_alloc_.i.i.i.i, align 8
  %add.ptr.i.i.i = getelementptr inbounds %"class.testing::ThrowingValue", ptr %6, i64 %7
  %cmp.not.i.i = icmp eq ptr %incdec.ptr.i.i, %add.ptr.i.i.i
  br i1 %cmp.not.i.i, label %_ZN7testing19exceptions_internal14DefaultFactoryIN4absl10FixedArrayINS_13ThrowingValueILNS_8TypeSpecE0EEELm25ENS_17ThrowingAllocatorIS6_LNS_9AllocSpecE0EEEEEED2Ev.exit, label %invoke.cont5.i.i, !llvm.loop !22

_ZN7testing19exceptions_internal14DefaultFactoryIN4absl10FixedArrayINS_13ThrowingValueILNS_8TypeSpecE0EEELm25ENS_17ThrowingAllocatorIS6_LNS_9AllocSpecE0EEEEEED2Ev.exit: ; preds = %_ZNSt16allocator_traitsIN7testing17ThrowingAllocatorINS0_13ThrowingValueILNS0_8TypeSpecE0EEELNS0_9AllocSpecE0EEEE7destroyIS4_EEvRS6_PT_.exit.i.i, %entry
  tail call void @_ZN4absl10FixedArrayIN7testing13ThrowingValueILNS1_8TypeSpecE0EEELm25ENS1_17ThrowingAllocatorIS4_LNS1_9AllocSpecE0EEEE7StorageD2Ev(ptr noundef nonnull align 8 dereferenceable(136) %this) #18
  ret void
}